; Function Attrs: null_pointer_is_valid sspstrong uwtable
define noalias noundef ptr @wmem_strbuf_dup(ptr noundef %0, ptr noundef readonly captures(none) %1) local_unnamed_addr #0 {
  %3 = getelementptr inbounds nuw i8, ptr %1, i64 24
  %4 = load i64, ptr %3, align 8
  %5 = tail call noalias dereferenceable_or_null(32) ptr @wmem_alloc(ptr noundef %0, i64 noundef 32) #16
  store ptr %0, ptr %5, align 8
  %6 = getelementptr inbounds nuw i8, ptr %5, i64 16
  %.not.i = icmp eq i64 %4, 0
  %7 = select i1 %.not.i, i64 16, i64 %4
  %8 = getelementptr inbounds nuw i8, ptr %5, i64 24
  store i64 %7, ptr %8, align 8
  %9 = tail call noalias ptr @wmem_alloc(ptr noundef %0, i64 noundef %7) #16
  %10 = getelementptr inbounds nuw i8, ptr %5, i64 8
  store ptr %9, ptr %10, align 8
  store i8 0, ptr %9, align 1
  %11 = getelementptr inbounds nuw i8, ptr %1, i64 16
  %12 = load i64, ptr %11, align 8
  store i64 %12, ptr %6, align 8
  %13 = getelementptr inbounds nuw i8, ptr %1, i64 8
  %14 = load ptr, ptr %13, align 8
  %15 = icmp ne i64 %7, -1
  tail call void @llvm.assume(i1 %15)
  %16 = tail call ptr @__memcpy_chk(ptr noundef %9, ptr noundef %14, i64 noundef %12, i64 noundef %7) #17, !alias.scope !16
  %17 = getelementptr i8, ptr %9, i64 %12
  store i8 0, ptr %17, align 1
  ret ptr %5
}